ARM GAS  C:\Users\dhous\AppData\Local\Temp\ccKTMeyp.s 			page 1


   1              		.syntax unified
   2              		.cpu cortex-m3
   3              		.fpu softvfp
   4              		.eabi_attribute 20, 1
   5              		.eabi_attribute 21, 1
   6              		.eabi_attribute 23, 3
   7              		.eabi_attribute 24, 1
   8              		.eabi_attribute 25, 1
   9              		.eabi_attribute 26, 1
  10              		.eabi_attribute 30, 1
  11              		.eabi_attribute 34, 1
  12              		.eabi_attribute 18, 4
  13              		.thumb
  14              		.syntax unified
  15              		.file	"i2c_helper.c"
  16              		.text
  17              	.Ltext0:
  18              		.cfi_sections	.debug_frame
  19              		.section	.text.I2C_clear_xfer_status,"ax",%progbits
  20              		.align	2
  21              		.global	I2C_clear_xfer_status
  22              		.thumb
  23              		.thumb_func
  24              		.type	I2C_clear_xfer_status, %function
  25              	I2C_clear_xfer_status:
  26              	.LFB64:
  27              		.file 1 "i2c_helper.c"
   1:i2c_helper.c  **** #include "project.h"
   2:i2c_helper.c  **** #include "i2c_helper.h"
   3:i2c_helper.c  **** 
   4:i2c_helper.c  **** // clears out the transfer status log
   5:i2c_helper.c  **** void I2C_clear_xfer_status(I2C_Transfer_Status *xfer_status)
   6:i2c_helper.c  **** {
  28              		.loc 1 6 0
  29              		.cfi_startproc
  30              		@ args = 0, pretend = 0, frame = 0
  31              		@ frame_needed = 0, uses_anonymous_args = 0
  32              		@ link register save eliminated.
  33              	.LVL0:
   7:i2c_helper.c  ****     xfer_status->bytes_read = 0;
  34              		.loc 1 7 0
  35 0000 0023     		movs	r3, #0
  36 0002 4373     		strb	r3, [r0, #13]
   8:i2c_helper.c  ****     xfer_status->bytes_to_read = 0;
  37              		.loc 1 8 0
  38 0004 0373     		strb	r3, [r0, #12]
   9:i2c_helper.c  ****     xfer_status->bytes_to_write = 0;
  39              		.loc 1 9 0
  40 0006 8372     		strb	r3, [r0, #10]
  10:i2c_helper.c  ****     xfer_status->bytes_written = 0;
  41              		.loc 1 10 0
  42 0008 C372     		strb	r3, [r0, #11]
  11:i2c_helper.c  ****     xfer_status->counter_value = 0;
  43              		.loc 1 11 0
  44 000a 0380     		strh	r3, [r0]	@ movhi
  12:i2c_helper.c  ****     xfer_status->i2c_read_xfer_result = 0;
  45              		.loc 1 12 0
ARM GAS  C:\Users\dhous\AppData\Local\Temp\ccKTMeyp.s 			page 2


  46 000c 8380     		strh	r3, [r0, #4]	@ movhi
  13:i2c_helper.c  ****     xfer_status->i2c_write_xfer_result = 0;
  47              		.loc 1 13 0
  48 000e 4380     		strh	r3, [r0, #2]	@ movhi
  14:i2c_helper.c  ****     xfer_status->ok = 0;
  49              		.loc 1 14 0
  50 0010 C373     		strb	r3, [r0, #15]
  15:i2c_helper.c  ****     xfer_status->read_cmd_result = 0;
  51              		.loc 1 15 0
  52 0012 0381     		strh	r3, [r0, #8]	@ movhi
  16:i2c_helper.c  ****     xfer_status->timeout_error = 0;
  53              		.loc 1 16 0
  54 0014 8373     		strb	r3, [r0, #14]
  17:i2c_helper.c  ****     xfer_status->write_cmd_result = 0;
  55              		.loc 1 17 0
  56 0016 C380     		strh	r3, [r0, #6]	@ movhi
  18:i2c_helper.c  ****     xfer_status->xfer_type = I2C_TRANSFER_TYPE_UNKNOWN;
  57              		.loc 1 18 0
  58 0018 0374     		strb	r3, [r0, #16]
  59 001a 7047     		bx	lr
  60              		.cfi_endproc
  61              	.LFE64:
  62              		.size	I2C_clear_xfer_status, .-I2C_clear_xfer_status
  63              		.section	.text.I2C_check_transfer_status,"ax",%progbits
  64              		.align	2
  65              		.global	I2C_check_transfer_status
  66              		.thumb
  67              		.thumb_func
  68              		.type	I2C_check_transfer_status, %function
  69              	I2C_check_transfer_status:
  70              	.LFB65:
  19:i2c_helper.c  **** }
  20:i2c_helper.c  **** 
  21:i2c_helper.c  **** // this will check several statuses of the I2C transfer and set the ok byte = 1 if OK
  22:i2c_helper.c  **** void I2C_check_transfer_status(I2C_Transfer_Status *xfer_status)
  23:i2c_helper.c  **** {
  71              		.loc 1 23 0
  72              		.cfi_startproc
  73              		@ args = 0, pretend = 0, frame = 0
  74              		@ frame_needed = 0, uses_anonymous_args = 0
  75              		@ link register save eliminated.
  76              	.LVL1:
  24:i2c_helper.c  ****     xfer_status->ok = 1; // assume OK
  77              		.loc 1 24 0
  78 0000 0123     		movs	r3, #1
  79 0002 C373     		strb	r3, [r0, #15]
  25:i2c_helper.c  ****     
  26:i2c_helper.c  ****     if ( (xfer_status->xfer_type == I2C_TRANSFER_TYPE_WRITE) | (xfer_status->xfer_type == I2C_TRANS
  80              		.loc 1 26 0
  81 0004 037C     		ldrb	r3, [r0, #16]	@ zero_extendqisi2
  82 0006 5A1E     		subs	r2, r3, #1
  83 0008 D2B2     		uxtb	r2, r2
  84 000a 012A     		cmp	r2, #1
  85 000c 14D8     		bhi	.L3
  27:i2c_helper.c  ****     {
  28:i2c_helper.c  ****         // bytes to write didn't equal bytes written throw an error
  29:i2c_helper.c  ****         if (xfer_status->bytes_to_write != xfer_status->bytes_written)
ARM GAS  C:\Users\dhous\AppData\Local\Temp\ccKTMeyp.s 			page 3


  86              		.loc 1 29 0
  87 000e 817A     		ldrb	r1, [r0, #10]	@ zero_extendqisi2
  88 0010 C27A     		ldrb	r2, [r0, #11]	@ zero_extendqisi2
  89 0012 9142     		cmp	r1, r2
  90 0014 01D0     		beq	.L4
  30:i2c_helper.c  ****             xfer_status->ok = 0;
  91              		.loc 1 30 0
  92 0016 0022     		movs	r2, #0
  93 0018 C273     		strb	r2, [r0, #15]
  94              	.L4:
  31:i2c_helper.c  **** 
  32:i2c_helper.c  ****         // bytes to read didn't equal bytes read throw an error
  33:i2c_helper.c  ****         if (xfer_status->bytes_to_read != xfer_status->bytes_read)
  95              		.loc 1 33 0
  96 001a 017B     		ldrb	r1, [r0, #12]	@ zero_extendqisi2
  97 001c 427B     		ldrb	r2, [r0, #13]	@ zero_extendqisi2
  98 001e 9142     		cmp	r1, r2
  99 0020 01D0     		beq	.L5
  34:i2c_helper.c  ****             xfer_status->ok = 0;       
 100              		.loc 1 34 0
 101 0022 0022     		movs	r2, #0
 102 0024 C273     		strb	r2, [r0, #15]
 103              	.L5:
  35:i2c_helper.c  ****         
  36:i2c_helper.c  ****         // if timeout happened mark as error
  37:i2c_helper.c  ****         if (xfer_status->timeout_error == 1)
 104              		.loc 1 37 0
 105 0026 827B     		ldrb	r2, [r0, #14]	@ zero_extendqisi2
 106 0028 012A     		cmp	r2, #1
 107 002a 01D1     		bne	.L6
  38:i2c_helper.c  ****             xfer_status->ok = 0;
 108              		.loc 1 38 0
 109 002c 0022     		movs	r2, #0
 110 002e C273     		strb	r2, [r0, #15]
 111              	.L6:
  39:i2c_helper.c  ****         
  40:i2c_helper.c  ****         // if the write command result was anything but no error set to error
  41:i2c_helper.c  ****         if (xfer_status->write_cmd_result != I2C_MSTR_NO_ERROR)
 112              		.loc 1 41 0
 113 0030 C288     		ldrh	r2, [r0, #6]
 114 0032 0AB1     		cbz	r2, .L3
  42:i2c_helper.c  ****             xfer_status->ok = 0;
 115              		.loc 1 42 0
 116 0034 0022     		movs	r2, #0
 117 0036 C273     		strb	r2, [r0, #15]
 118              	.L3:
  43:i2c_helper.c  ****     }
  44:i2c_helper.c  ****     
  45:i2c_helper.c  ****     if ( xfer_status->xfer_type == I2C_TRANSFER_TYPE_WRITE )
 119              		.loc 1 45 0
 120 0038 012B     		cmp	r3, #1
 121 003a 05D1     		bne	.L7
  46:i2c_helper.c  ****     {
  47:i2c_helper.c  ****         // if the xfer result was anything but write completed set to error
  48:i2c_helper.c  ****         // this is only for a write-only transaction
  49:i2c_helper.c  ****         if ((xfer_status->i2c_write_xfer_result & (~I2C_MSTAT_WR_CMPLT)) > 0)
 122              		.loc 1 49 0
ARM GAS  C:\Users\dhous\AppData\Local\Temp\ccKTMeyp.s 			page 4


 123 003c 4288     		ldrh	r2, [r0, #2]
 124 003e 32F00202 		bics	r2, r2, #2
 125 0042 01D0     		beq	.L7
  50:i2c_helper.c  ****             xfer_status->ok = 0;
 126              		.loc 1 50 0
 127 0044 0022     		movs	r2, #0
 128 0046 C273     		strb	r2, [r0, #15]
 129              	.L7:
  51:i2c_helper.c  ****     }
  52:i2c_helper.c  ****     
  53:i2c_helper.c  ****     if ( xfer_status->xfer_type == I2C_TRANSFER_TYPE_WRITE_READ )
 130              		.loc 1 53 0
 131 0048 022B     		cmp	r3, #2
 132 004a 09D1     		bne	.L2
 133              	.LVL2:
 134              	.LBB2:
  54:i2c_helper.c  ****     {
  55:i2c_helper.c  ****         // if the xfer result was anything but write completed set to error
  56:i2c_helper.c  ****         // this is only for a write-read transaction
  57:i2c_helper.c  ****         
  58:i2c_helper.c  ****         uint16_t expected_flags = I2C_MSTAT_WR_CMPLT | I2C_MSTAT_XFER_INP | I2C_MSTAT_XFER_HALT;
  59:i2c_helper.c  ****         if ((xfer_status->i2c_write_xfer_result & (~expected_flags)) > 0)
 135              		.loc 1 59 0
 136 004c 4388     		ldrh	r3, [r0, #2]
 137 004e 33F00E03 		bics	r3, r3, #14
 138 0052 01D0     		beq	.L9
  60:i2c_helper.c  ****             xfer_status->ok = 0;
 139              		.loc 1 60 0
 140 0054 0023     		movs	r3, #0
 141 0056 C373     		strb	r3, [r0, #15]
 142              	.L9:
  61:i2c_helper.c  ****         
  62:i2c_helper.c  ****         // if the read command result was anything but no error set to error
  63:i2c_helper.c  ****         if (xfer_status->read_cmd_result != I2C_MSTR_NO_ERROR)
 143              		.loc 1 63 0
 144 0058 0389     		ldrh	r3, [r0, #8]
 145 005a 0BB1     		cbz	r3, .L2
  64:i2c_helper.c  ****             xfer_status->ok = 0;
 146              		.loc 1 64 0
 147 005c 0023     		movs	r3, #0
 148 005e C373     		strb	r3, [r0, #15]
 149              	.LVL3:
 150              	.L2:
 151 0060 7047     		bx	lr
 152              	.LBE2:
 153              		.cfi_endproc
 154              	.LFE65:
 155              		.size	I2C_check_transfer_status, .-I2C_check_transfer_status
 156 0062 00BF     		.section	.text.I2C_write,"ax",%progbits
 157              		.align	2
 158              		.global	I2C_write
 159              		.thumb
 160              		.thumb_func
 161              		.type	I2C_write, %function
 162              	I2C_write:
 163              	.LFB66:
  65:i2c_helper.c  ****         
ARM GAS  C:\Users\dhous\AppData\Local\Temp\ccKTMeyp.s 			page 5


  66:i2c_helper.c  ****     }
  67:i2c_helper.c  **** }
  68:i2c_helper.c  **** 
  69:i2c_helper.c  **** void I2C_write(uint8_t slave_address, uint8_t *bytes, uint8_t byte_count, I2C_Transfer_Status *xfer
  70:i2c_helper.c  **** {
 164              		.loc 1 70 0
 165              		.cfi_startproc
 166              		@ args = 0, pretend = 0, frame = 0
 167              		@ frame_needed = 0, uses_anonymous_args = 0
 168              	.LVL4:
 169 0000 F8B5     		push	{r3, r4, r5, r6, r7, lr}
 170              		.cfi_def_cfa_offset 24
 171              		.cfi_offset 3, -24
 172              		.cfi_offset 4, -20
 173              		.cfi_offset 5, -16
 174              		.cfi_offset 6, -12
 175              		.cfi_offset 7, -8
 176              		.cfi_offset 14, -4
 177 0002 0646     		mov	r6, r0
 178 0004 0F46     		mov	r7, r1
 179 0006 1546     		mov	r5, r2
 180 0008 1C46     		mov	r4, r3
 181              	.LVL5:
  71:i2c_helper.c  ****     
  72:i2c_helper.c  ****     uint32_t final_i2c_ms_counter;
  73:i2c_helper.c  ****     uint8_t i2c_timeout = 0;
  74:i2c_helper.c  ****     
  75:i2c_helper.c  ****     // clear the I2C bus status
  76:i2c_helper.c  ****     I2C_MasterClearStatus();
 182              		.loc 1 76 0
 183 000a FFF7FEFF 		bl	I2C_MasterClearStatus
 184              	.LVL6:
  77:i2c_helper.c  ****     I2C_MasterClearReadBuf();
 185              		.loc 1 77 0
 186 000e FFF7FEFF 		bl	I2C_MasterClearReadBuf
 187              	.LVL7:
  78:i2c_helper.c  ****     I2C_MasterClearWriteBuf();
 188              		.loc 1 78 0
 189 0012 FFF7FEFF 		bl	I2C_MasterClearWriteBuf
 190              	.LVL8:
  79:i2c_helper.c  ****     
  80:i2c_helper.c  ****     // clear out the I2C status record
  81:i2c_helper.c  ****     I2C_clear_xfer_status(xfer_status);
 191              		.loc 1 81 0
 192 0016 2046     		mov	r0, r4
 193 0018 FFF7FEFF 		bl	I2C_clear_xfer_status
 194              	.LVL9:
  82:i2c_helper.c  **** 
  83:i2c_helper.c  ****     // set the transfer type
  84:i2c_helper.c  ****     xfer_status->xfer_type = I2C_TRANSFER_TYPE_WRITE;
 195              		.loc 1 84 0
 196 001c 0123     		movs	r3, #1
 197 001e 2374     		strb	r3, [r4, #16]
  85:i2c_helper.c  ****     
  86:i2c_helper.c  ****     // log the number of bytes to write
  87:i2c_helper.c  ****     xfer_status->bytes_to_write = byte_count;
 198              		.loc 1 87 0
ARM GAS  C:\Users\dhous\AppData\Local\Temp\ccKTMeyp.s 			page 6


 199 0020 A572     		strb	r5, [r4, #10]
  88:i2c_helper.c  ****     
  89:i2c_helper.c  ****     // reset the systick timer to the timeout value
  90:i2c_helper.c  ****     i2c_ms_counter = 0;
 200              		.loc 1 90 0
 201 0022 0023     		movs	r3, #0
 202 0024 144A     		ldr	r2, .L16
 203 0026 1360     		str	r3, [r2]
  91:i2c_helper.c  ****     
  92:i2c_helper.c  ****     // send the write command and read teh result
  93:i2c_helper.c  ****     xfer_status->write_cmd_result = I2C_MasterWriteBuf(slave_address, bytes, byte_count, I2C_MODE_C
 204              		.loc 1 93 0
 205 0028 2A46     		mov	r2, r5
 206 002a 3946     		mov	r1, r7
 207 002c 3046     		mov	r0, r6
 208 002e FFF7FEFF 		bl	I2C_MasterWriteBuf
 209              	.LVL10:
 210 0032 E080     		strh	r0, [r4, #6]	@ movhi
 211              	.L12:
  94:i2c_helper.c  ****     
  95:i2c_helper.c  ****     // while the read is not complete and the timeout is not set, wait
  96:i2c_helper.c  ****     while ((!(I2C_MasterStatus() & I2C_MSTAT_WR_CMPLT)) && (i2c_ms_counter < I2C_TIMEOUT_MS)) {cont
 212              		.loc 1 96 0 discriminator 1
 213 0034 FFF7FEFF 		bl	I2C_MasterStatus
 214              	.LVL11:
 215 0038 10F0020F 		tst	r0, #2
 216 003c 04D1     		bne	.L11
 217              		.loc 1 96 0 is_stmt 0 discriminator 2
 218 003e 0E4B     		ldr	r3, .L16
 219 0040 1B68     		ldr	r3, [r3]
 220 0042 B3F5FA7F 		cmp	r3, #500
 221 0046 F5D3     		bcc	.L12
 222              	.L11:
  97:i2c_helper.c  **** 
  98:i2c_helper.c  ****     // get the terminal value of the i2c_ms_counter
  99:i2c_helper.c  ****     final_i2c_ms_counter = i2c_ms_counter;
 223              		.loc 1 99 0 is_stmt 1
 224 0048 0B4B     		ldr	r3, .L16
 225 004a 1B68     		ldr	r3, [r3]
 226              	.LVL12:
 100:i2c_helper.c  **** 
 101:i2c_helper.c  ****     // if the counter has passed zero it is a timeout so set the flag
 102:i2c_helper.c  ****     if (final_i2c_ms_counter >= I2C_TIMEOUT_MS)
 227              		.loc 1 102 0
 228 004c B3F5FA7F 		cmp	r3, #500
 229 0050 01D2     		bcs	.L14
  73:i2c_helper.c  ****     
 230              		.loc 1 73 0
 231 0052 0025     		movs	r5, #0
 232 0054 00E0     		b	.L13
 233              	.L14:
 103:i2c_helper.c  ****     {
 104:i2c_helper.c  ****         i2c_timeout = 1;
 234              		.loc 1 104 0
 235 0056 0125     		movs	r5, #1
 236              	.L13:
 237              	.LVL13:
ARM GAS  C:\Users\dhous\AppData\Local\Temp\ccKTMeyp.s 			page 7


 105:i2c_helper.c  ****     }
 106:i2c_helper.c  ****         
 107:i2c_helper.c  ****     // get the I2C timeout counter value
 108:i2c_helper.c  ****     xfer_status->counter_value = (uint16_t)i2c_ms_counter;
 238              		.loc 1 108 0
 239 0058 074B     		ldr	r3, .L16
 240              	.LVL14:
 241 005a 1B68     		ldr	r3, [r3]
 242 005c 2380     		strh	r3, [r4]	@ movhi
 109:i2c_helper.c  **** 
 110:i2c_helper.c  ****     // get the transfer status result
 111:i2c_helper.c  ****     xfer_status->i2c_write_xfer_result = I2C_MasterStatus();
 243              		.loc 1 111 0
 244 005e FFF7FEFF 		bl	I2C_MasterStatus
 245              	.LVL15:
 246 0062 6080     		strh	r0, [r4, #2]	@ movhi
 112:i2c_helper.c  **** 
 113:i2c_helper.c  ****     // get the timeout flag
 114:i2c_helper.c  ****     xfer_status->timeout_error = i2c_timeout;
 247              		.loc 1 114 0
 248 0064 A573     		strb	r5, [r4, #14]
 115:i2c_helper.c  **** 
 116:i2c_helper.c  ****     // get the # of bytes actually sent
 117:i2c_helper.c  ****     xfer_status->bytes_written = I2C_MasterGetWriteBufSize();
 249              		.loc 1 117 0
 250 0066 FFF7FEFF 		bl	I2C_MasterGetWriteBufSize
 251              	.LVL16:
 252 006a E072     		strb	r0, [r4, #11]
 118:i2c_helper.c  ****     
 119:i2c_helper.c  ****     // clear the transfer status  
 120:i2c_helper.c  ****     I2C_MasterClearStatus();
 253              		.loc 1 120 0
 254 006c FFF7FEFF 		bl	I2C_MasterClearStatus
 255              	.LVL17:
 121:i2c_helper.c  ****     
 122:i2c_helper.c  ****     // parse the transfer status
 123:i2c_helper.c  ****     I2C_check_transfer_status(xfer_status);
 256              		.loc 1 123 0
 257 0070 2046     		mov	r0, r4
 258 0072 FFF7FEFF 		bl	I2C_check_transfer_status
 259              	.LVL18:
 260 0076 F8BD     		pop	{r3, r4, r5, r6, r7, pc}
 261              	.LVL19:
 262              	.L17:
 263              		.align	2
 264              	.L16:
 265 0078 00000000 		.word	i2c_ms_counter
 266              		.cfi_endproc
 267              	.LFE66:
 268              		.size	I2C_write, .-I2C_write
 269              		.section	.text.I2C_xfer,"ax",%progbits
 270              		.align	2
 271              		.global	I2C_xfer
 272              		.thumb
 273              		.thumb_func
 274              		.type	I2C_xfer, %function
 275              	I2C_xfer:
ARM GAS  C:\Users\dhous\AppData\Local\Temp\ccKTMeyp.s 			page 8


 276              	.LFB67:
 124:i2c_helper.c  **** 
 125:i2c_helper.c  **** }
 126:i2c_helper.c  **** 
 127:i2c_helper.c  **** 
 128:i2c_helper.c  **** void I2C_xfer(uint8_t slave_address, uint8_t *tx_bytes, uint8_t tx_count, uint8_t *rx_bytes, uint8_
 129:i2c_helper.c  **** {
 277              		.loc 1 129 0
 278              		.cfi_startproc
 279              		@ args = 16, pretend = 0, frame = 0
 280              		@ frame_needed = 0, uses_anonymous_args = 0
 281              	.LVL20:
 282 0000 2DE9F843 		push	{r3, r4, r5, r6, r7, r8, r9, lr}
 283              		.cfi_def_cfa_offset 32
 284              		.cfi_offset 3, -32
 285              		.cfi_offset 4, -28
 286              		.cfi_offset 5, -24
 287              		.cfi_offset 6, -20
 288              		.cfi_offset 7, -16
 289              		.cfi_offset 8, -12
 290              		.cfi_offset 9, -8
 291              		.cfi_offset 14, -4
 292 0004 0546     		mov	r5, r0
 293 0006 8946     		mov	r9, r1
 294 0008 1746     		mov	r7, r2
 295 000a 9846     		mov	r8, r3
 296 000c 9DF82060 		ldrb	r6, [sp, #32]	@ zero_extendqisi2
 297 0010 099C     		ldr	r4, [sp, #36]
 298              	.LVL21:
 130:i2c_helper.c  ****     uint8_t i2c_timeout = 0;
 131:i2c_helper.c  ****     uint32_t final_i2c_ms_counter;
 132:i2c_helper.c  ****     
 133:i2c_helper.c  ****     // clear the I2C bus status
 134:i2c_helper.c  ****     I2C_MasterClearStatus();
 299              		.loc 1 134 0
 300 0012 FFF7FEFF 		bl	I2C_MasterClearStatus
 301              	.LVL22:
 135:i2c_helper.c  ****     I2C_MasterClearReadBuf();
 302              		.loc 1 135 0
 303 0016 FFF7FEFF 		bl	I2C_MasterClearReadBuf
 304              	.LVL23:
 136:i2c_helper.c  ****     I2C_MasterClearWriteBuf();
 305              		.loc 1 136 0
 306 001a FFF7FEFF 		bl	I2C_MasterClearWriteBuf
 307              	.LVL24:
 137:i2c_helper.c  ****     
 138:i2c_helper.c  ****     // clear out the status record
 139:i2c_helper.c  ****     I2C_clear_xfer_status(xfer_status);
 308              		.loc 1 139 0
 309 001e 2046     		mov	r0, r4
 310 0020 FFF7FEFF 		bl	I2C_clear_xfer_status
 311              	.LVL25:
 140:i2c_helper.c  ****     
 141:i2c_helper.c  ****     // set the transfer type
 142:i2c_helper.c  ****     xfer_status->xfer_type = I2C_TRANSFER_TYPE_WRITE_READ;
 312              		.loc 1 142 0
 313 0024 0223     		movs	r3, #2
ARM GAS  C:\Users\dhous\AppData\Local\Temp\ccKTMeyp.s 			page 9


 314 0026 2374     		strb	r3, [r4, #16]
 143:i2c_helper.c  **** 
 144:i2c_helper.c  ****     // log the number of bytes to write
 145:i2c_helper.c  ****     xfer_status->bytes_to_write = tx_count;
 315              		.loc 1 145 0
 316 0028 A772     		strb	r7, [r4, #10]
 146:i2c_helper.c  ****     
 147:i2c_helper.c  ****     // log the number of bytes to read
 148:i2c_helper.c  ****     xfer_status->bytes_to_read = rx_count;
 317              		.loc 1 148 0
 318 002a 2673     		strb	r6, [r4, #12]
 149:i2c_helper.c  ****     
 150:i2c_helper.c  ****     // reset the systick timer to the timeout value
 151:i2c_helper.c  ****     i2c_ms_counter = 0;
 319              		.loc 1 151 0
 320 002c 0022     		movs	r2, #0
 321 002e 224B     		ldr	r3, .L26
 322 0030 1A60     		str	r2, [r3]
 152:i2c_helper.c  ****     
 153:i2c_helper.c  ****     
 154:i2c_helper.c  ****     // send the write command and read the result
 155:i2c_helper.c  ****     xfer_status->write_cmd_result = I2C_MasterWriteBuf(slave_address, tx_bytes, tx_count, i2c_write
 323              		.loc 1 155 0
 324 0032 9DF82830 		ldrb	r3, [sp, #40]	@ zero_extendqisi2
 325 0036 3A46     		mov	r2, r7
 326 0038 4946     		mov	r1, r9
 327 003a 2846     		mov	r0, r5
 328 003c FFF7FEFF 		bl	I2C_MasterWriteBuf
 329              	.LVL26:
 330 0040 E080     		strh	r0, [r4, #6]	@ movhi
 331              	.L20:
 156:i2c_helper.c  ****     
 157:i2c_helper.c  ****     // while the write is not complete and the timeout is not set, wait
 158:i2c_helper.c  ****     while ((!(I2C_MasterStatus() & I2C_MSTAT_WR_CMPLT)) && (i2c_ms_counter < I2C_TIMEOUT_MS)) {cont
 332              		.loc 1 158 0 discriminator 1
 333 0042 FFF7FEFF 		bl	I2C_MasterStatus
 334              	.LVL27:
 335 0046 10F0020F 		tst	r0, #2
 336 004a 04D1     		bne	.L19
 337              		.loc 1 158 0 is_stmt 0 discriminator 2
 338 004c 1A4B     		ldr	r3, .L26
 339 004e 1B68     		ldr	r3, [r3]
 340 0050 B3F5FA7F 		cmp	r3, #500
 341 0054 F5D3     		bcc	.L20
 342              	.L19:
 159:i2c_helper.c  **** 
 160:i2c_helper.c  ****     // record the number of bytes written
 161:i2c_helper.c  ****     xfer_status->bytes_written = I2C_MasterGetWriteBufSize();
 343              		.loc 1 161 0 is_stmt 1
 344 0056 FFF7FEFF 		bl	I2C_MasterGetWriteBufSize
 345              	.LVL28:
 346 005a E072     		strb	r0, [r4, #11]
 162:i2c_helper.c  ****     
 163:i2c_helper.c  ****     // get the transfer status result
 164:i2c_helper.c  ****     xfer_status->i2c_write_xfer_result = I2C_MasterStatus();
 347              		.loc 1 164 0
 348 005c FFF7FEFF 		bl	I2C_MasterStatus
ARM GAS  C:\Users\dhous\AppData\Local\Temp\ccKTMeyp.s 			page 10


 349              	.LVL29:
 350 0060 6080     		strh	r0, [r4, #2]	@ movhi
 165:i2c_helper.c  ****     
 166:i2c_helper.c  ****     // clear the master status
 167:i2c_helper.c  ****     I2C_MasterClearStatus();
 351              		.loc 1 167 0
 352 0062 FFF7FEFF 		bl	I2C_MasterClearStatus
 353              	.LVL30:
 168:i2c_helper.c  ****     
 169:i2c_helper.c  ****     // read the results
 170:i2c_helper.c  ****     xfer_status->read_cmd_result = I2C_MasterReadBuf(slave_address, rx_bytes, rx_count, i2c_read_mo
 354              		.loc 1 170 0
 355 0066 9DF82C30 		ldrb	r3, [sp, #44]	@ zero_extendqisi2
 356 006a 3246     		mov	r2, r6
 357 006c 4146     		mov	r1, r8
 358 006e 2846     		mov	r0, r5
 359 0070 FFF7FEFF 		bl	I2C_MasterReadBuf
 360              	.LVL31:
 361 0074 2081     		strh	r0, [r4, #8]	@ movhi
 362              	.L22:
 171:i2c_helper.c  ****     while ((!(I2C_MasterStatus() & I2C_MSTAT_RD_CMPLT)) && (i2c_ms_counter < I2C_TIMEOUT_MS)) {cont
 363              		.loc 1 171 0 discriminator 1
 364 0076 FFF7FEFF 		bl	I2C_MasterStatus
 365              	.LVL32:
 366 007a 10F0010F 		tst	r0, #1
 367 007e 04D1     		bne	.L21
 368              		.loc 1 171 0 is_stmt 0 discriminator 2
 369 0080 0D4B     		ldr	r3, .L26
 370 0082 1B68     		ldr	r3, [r3]
 371 0084 B3F5FA7F 		cmp	r3, #500
 372 0088 F5D3     		bcc	.L22
 373              	.L21:
 172:i2c_helper.c  ****     
 173:i2c_helper.c  ****     // get the terminal value of the i2c_ms_counter
 174:i2c_helper.c  ****     final_i2c_ms_counter = i2c_ms_counter;
 374              		.loc 1 174 0 is_stmt 1
 375 008a 0B4B     		ldr	r3, .L26
 376 008c 1B68     		ldr	r3, [r3]
 377              	.LVL33:
 175:i2c_helper.c  **** 
 176:i2c_helper.c  ****     // if the counter has passed zero it is a timeout so set the flag
 177:i2c_helper.c  ****     if (final_i2c_ms_counter >= I2C_TIMEOUT_MS)
 378              		.loc 1 177 0
 379 008e B3F5FA7F 		cmp	r3, #500
 380 0092 01D2     		bcs	.L24
 130:i2c_helper.c  ****     uint32_t final_i2c_ms_counter;
 381              		.loc 1 130 0
 382 0094 0022     		movs	r2, #0
 383 0096 00E0     		b	.L23
 384              	.L24:
 178:i2c_helper.c  ****     {
 179:i2c_helper.c  ****         i2c_timeout = 1;
 385              		.loc 1 179 0
 386 0098 0122     		movs	r2, #1
 387              	.L23:
 388              	.LVL34:
 180:i2c_helper.c  ****     }
ARM GAS  C:\Users\dhous\AppData\Local\Temp\ccKTMeyp.s 			page 11


 181:i2c_helper.c  ****     
 182:i2c_helper.c  ****     // record if the timeout occurred
 183:i2c_helper.c  ****     xfer_status->timeout_error = i2c_timeout;
 389              		.loc 1 183 0
 390 009a A273     		strb	r2, [r4, #14]
 184:i2c_helper.c  **** 
 185:i2c_helper.c  ****     // get the I2C timeout counter value
 186:i2c_helper.c  ****     xfer_status->counter_value = final_i2c_ms_counter;
 391              		.loc 1 186 0
 392 009c 2380     		strh	r3, [r4]	@ movhi
 187:i2c_helper.c  ****     
 188:i2c_helper.c  ****     // record the number of bytes read
 189:i2c_helper.c  ****     xfer_status->bytes_read = I2C_MasterGetReadBufSize();
 393              		.loc 1 189 0
 394 009e FFF7FEFF 		bl	I2C_MasterGetReadBufSize
 395              	.LVL35:
 396 00a2 6073     		strb	r0, [r4, #13]
 190:i2c_helper.c  ****     
 191:i2c_helper.c  ****     // record the master transfer status
 192:i2c_helper.c  ****     xfer_status->i2c_read_xfer_result = I2C_MasterStatus();
 397              		.loc 1 192 0
 398 00a4 FFF7FEFF 		bl	I2C_MasterStatus
 399              	.LVL36:
 400 00a8 A080     		strh	r0, [r4, #4]	@ movhi
 193:i2c_helper.c  ****     
 194:i2c_helper.c  ****     
 195:i2c_helper.c  ****     // clear the master status
 196:i2c_helper.c  ****     I2C_MasterClearStatus();
 401              		.loc 1 196 0
 402 00aa FFF7FEFF 		bl	I2C_MasterClearStatus
 403              	.LVL37:
 197:i2c_helper.c  ****     
 198:i2c_helper.c  ****     // parse the transfer status
 199:i2c_helper.c  ****     I2C_check_transfer_status(xfer_status);
 404              		.loc 1 199 0
 405 00ae 2046     		mov	r0, r4
 406 00b0 FFF7FEFF 		bl	I2C_check_transfer_status
 407              	.LVL38:
 408 00b4 BDE8F883 		pop	{r3, r4, r5, r6, r7, r8, r9, pc}
 409              	.LVL39:
 410              	.L27:
 411              		.align	2
 412              	.L26:
 413 00b8 00000000 		.word	i2c_ms_counter
 414              		.cfi_endproc
 415              	.LFE67:
 416              		.size	I2C_xfer, .-I2C_xfer
 417              		.section	.text.I2C_read,"ax",%progbits
 418              		.align	2
 419              		.global	I2C_read
 420              		.thumb
 421              		.thumb_func
 422              		.type	I2C_read, %function
 423              	I2C_read:
 424              	.LFB68:
 200:i2c_helper.c  **** 
 201:i2c_helper.c  ****     
ARM GAS  C:\Users\dhous\AppData\Local\Temp\ccKTMeyp.s 			page 12


 202:i2c_helper.c  **** }
 203:i2c_helper.c  **** 
 204:i2c_helper.c  **** 
 205:i2c_helper.c  **** void I2C_read(uint8_t slave_address, uint8_t *bytes, uint8_t byte_count, I2C_Transfer_Status *xfer_
 206:i2c_helper.c  **** {
 425              		.loc 1 206 0
 426              		.cfi_startproc
 427              		@ args = 0, pretend = 0, frame = 0
 428              		@ frame_needed = 0, uses_anonymous_args = 0
 429              	.LVL40:
 430 0000 F8B5     		push	{r3, r4, r5, r6, r7, lr}
 431              		.cfi_def_cfa_offset 24
 432              		.cfi_offset 3, -24
 433              		.cfi_offset 4, -20
 434              		.cfi_offset 5, -16
 435              		.cfi_offset 6, -12
 436              		.cfi_offset 7, -8
 437              		.cfi_offset 14, -4
 438 0002 0646     		mov	r6, r0
 439 0004 0F46     		mov	r7, r1
 440 0006 1546     		mov	r5, r2
 441 0008 1C46     		mov	r4, r3
 442              	.LVL41:
 207:i2c_helper.c  ****     
 208:i2c_helper.c  ****     uint32_t final_i2c_ms_counter;
 209:i2c_helper.c  ****     uint8_t i2c_timeout = 0;
 210:i2c_helper.c  ****     
 211:i2c_helper.c  ****     // clear the I2C bus status
 212:i2c_helper.c  ****     I2C_MasterClearStatus();
 443              		.loc 1 212 0
 444 000a FFF7FEFF 		bl	I2C_MasterClearStatus
 445              	.LVL42:
 213:i2c_helper.c  ****     I2C_MasterClearReadBuf();
 446              		.loc 1 213 0
 447 000e FFF7FEFF 		bl	I2C_MasterClearReadBuf
 448              	.LVL43:
 214:i2c_helper.c  ****     I2C_MasterClearWriteBuf();
 449              		.loc 1 214 0
 450 0012 FFF7FEFF 		bl	I2C_MasterClearWriteBuf
 451              	.LVL44:
 215:i2c_helper.c  ****     
 216:i2c_helper.c  ****     // clear out the I2C status record
 217:i2c_helper.c  ****     I2C_clear_xfer_status(xfer_status);
 452              		.loc 1 217 0
 453 0016 2046     		mov	r0, r4
 454 0018 FFF7FEFF 		bl	I2C_clear_xfer_status
 455              	.LVL45:
 218:i2c_helper.c  **** 
 219:i2c_helper.c  ****     // set the transfer type
 220:i2c_helper.c  ****     xfer_status->xfer_type = I2C_TRANSFER_TYPE_READ;
 456              		.loc 1 220 0
 457 001c 0323     		movs	r3, #3
 458 001e 2374     		strb	r3, [r4, #16]
 221:i2c_helper.c  ****     
 222:i2c_helper.c  ****     // log the number of bytes to write
 223:i2c_helper.c  ****     xfer_status->bytes_to_read = byte_count;
 459              		.loc 1 223 0
ARM GAS  C:\Users\dhous\AppData\Local\Temp\ccKTMeyp.s 			page 13


 460 0020 2573     		strb	r5, [r4, #12]
 224:i2c_helper.c  ****     
 225:i2c_helper.c  ****     // reset the systick timer to the timeout value
 226:i2c_helper.c  ****     i2c_ms_counter = 0;
 461              		.loc 1 226 0
 462 0022 0023     		movs	r3, #0
 463 0024 144A     		ldr	r2, .L34
 464 0026 1360     		str	r3, [r2]
 227:i2c_helper.c  ****     
 228:i2c_helper.c  ****     // send the write command and read teh result
 229:i2c_helper.c  ****     xfer_status->read_cmd_result = I2C_MasterReadBuf(slave_address, bytes, byte_count, I2C_MODE_COM
 465              		.loc 1 229 0
 466 0028 2A46     		mov	r2, r5
 467 002a 3946     		mov	r1, r7
 468 002c 3046     		mov	r0, r6
 469 002e FFF7FEFF 		bl	I2C_MasterReadBuf
 470              	.LVL46:
 471 0032 2081     		strh	r0, [r4, #8]	@ movhi
 472              	.L30:
 230:i2c_helper.c  ****     
 231:i2c_helper.c  ****     // while the read is not complete and the timeout is not set, wait
 232:i2c_helper.c  ****     while ((!(I2C_MasterStatus() & I2C_MSTAT_RD_CMPLT)) && (i2c_ms_counter < I2C_TIMEOUT_MS)) {cont
 473              		.loc 1 232 0 discriminator 1
 474 0034 FFF7FEFF 		bl	I2C_MasterStatus
 475              	.LVL47:
 476 0038 10F0010F 		tst	r0, #1
 477 003c 04D1     		bne	.L29
 478              		.loc 1 232 0 is_stmt 0 discriminator 2
 479 003e 0E4B     		ldr	r3, .L34
 480 0040 1B68     		ldr	r3, [r3]
 481 0042 B3F5FA7F 		cmp	r3, #500
 482 0046 F5D3     		bcc	.L30
 483              	.L29:
 233:i2c_helper.c  **** 
 234:i2c_helper.c  ****     // get the terminal value of the i2c_ms_counter
 235:i2c_helper.c  ****     final_i2c_ms_counter = i2c_ms_counter;
 484              		.loc 1 235 0 is_stmt 1
 485 0048 0B4B     		ldr	r3, .L34
 486 004a 1B68     		ldr	r3, [r3]
 487              	.LVL48:
 236:i2c_helper.c  **** 
 237:i2c_helper.c  ****     // if the counter has passed zero it is a timeout so set the flag
 238:i2c_helper.c  ****     if (final_i2c_ms_counter >= I2C_TIMEOUT_MS)
 488              		.loc 1 238 0
 489 004c B3F5FA7F 		cmp	r3, #500
 490 0050 01D2     		bcs	.L32
 209:i2c_helper.c  ****     
 491              		.loc 1 209 0
 492 0052 0025     		movs	r5, #0
 493 0054 00E0     		b	.L31
 494              	.L32:
 239:i2c_helper.c  ****     {
 240:i2c_helper.c  ****         i2c_timeout = 1;
 495              		.loc 1 240 0
 496 0056 0125     		movs	r5, #1
 497              	.L31:
 498              	.LVL49:
ARM GAS  C:\Users\dhous\AppData\Local\Temp\ccKTMeyp.s 			page 14


 241:i2c_helper.c  ****     }
 242:i2c_helper.c  ****         
 243:i2c_helper.c  ****     // get the I2C timeout counter value
 244:i2c_helper.c  ****     xfer_status->counter_value = (uint16_t)i2c_ms_counter;
 499              		.loc 1 244 0
 500 0058 074B     		ldr	r3, .L34
 501              	.LVL50:
 502 005a 1B68     		ldr	r3, [r3]
 503 005c 2380     		strh	r3, [r4]	@ movhi
 245:i2c_helper.c  **** 
 246:i2c_helper.c  ****     // get the transfer status result
 247:i2c_helper.c  ****     xfer_status->i2c_read_xfer_result = I2C_MasterStatus();
 504              		.loc 1 247 0
 505 005e FFF7FEFF 		bl	I2C_MasterStatus
 506              	.LVL51:
 507 0062 A080     		strh	r0, [r4, #4]	@ movhi
 248:i2c_helper.c  **** 
 249:i2c_helper.c  ****     // get the timeout flag
 250:i2c_helper.c  ****     xfer_status->timeout_error = i2c_timeout;
 508              		.loc 1 250 0
 509 0064 A573     		strb	r5, [r4, #14]
 251:i2c_helper.c  **** 
 252:i2c_helper.c  ****     // get the # of bytes actually read
 253:i2c_helper.c  ****     xfer_status->bytes_read = I2C_MasterGetReadBufSize();
 510              		.loc 1 253 0
 511 0066 FFF7FEFF 		bl	I2C_MasterGetReadBufSize
 512              	.LVL52:
 513 006a 6073     		strb	r0, [r4, #13]
 254:i2c_helper.c  ****     
 255:i2c_helper.c  ****     // clear the transfer status  
 256:i2c_helper.c  ****     I2C_MasterClearStatus();
 514              		.loc 1 256 0
 515 006c FFF7FEFF 		bl	I2C_MasterClearStatus
 516              	.LVL53:
 257:i2c_helper.c  ****     
 258:i2c_helper.c  ****     // parse the transfer status
 259:i2c_helper.c  ****     I2C_check_transfer_status(xfer_status);
 517              		.loc 1 259 0
 518 0070 2046     		mov	r0, r4
 519 0072 FFF7FEFF 		bl	I2C_check_transfer_status
 520              	.LVL54:
 521 0076 F8BD     		pop	{r3, r4, r5, r6, r7, pc}
 522              	.LVL55:
 523              	.L35:
 524              		.align	2
 525              	.L34:
 526 0078 00000000 		.word	i2c_ms_counter
 527              		.cfi_endproc
 528              	.LFE68:
 529              		.size	I2C_read, .-I2C_read
 530              		.section	.text.I2C_print_transfer_status,"ax",%progbits
 531              		.align	2
 532              		.global	I2C_print_transfer_status
 533              		.thumb
 534              		.thumb_func
 535              		.type	I2C_print_transfer_status, %function
 536              	I2C_print_transfer_status:
ARM GAS  C:\Users\dhous\AppData\Local\Temp\ccKTMeyp.s 			page 15


 537              	.LFB69:
 260:i2c_helper.c  **** 
 261:i2c_helper.c  **** }
 262:i2c_helper.c  **** 
 263:i2c_helper.c  **** void I2C_print_transfer_status(I2C_Transfer_Status *xfer_status)
 264:i2c_helper.c  **** {
 538              		.loc 1 264 0
 539              		.cfi_startproc
 540              		@ args = 0, pretend = 0, frame = 64
 541              		@ frame_needed = 0, uses_anonymous_args = 0
 542              	.LVL56:
 543 0000 10B5     		push	{r4, lr}
 544              		.cfi_def_cfa_offset 8
 545              		.cfi_offset 4, -8
 546              		.cfi_offset 14, -4
 547 0002 90B0     		sub	sp, sp, #64
 548              		.cfi_def_cfa_offset 72
 549 0004 0446     		mov	r4, r0
 265:i2c_helper.c  ****     char outstr[64];
 266:i2c_helper.c  ****     
 267:i2c_helper.c  ****     if (xfer_status->ok)
 550              		.loc 1 267 0
 551 0006 C37B     		ldrb	r3, [r0, #15]	@ zero_extendqisi2
 552 0008 1BB1     		cbz	r3, .L37
 268:i2c_helper.c  ****     {
 269:i2c_helper.c  ****         UART_PutString("Overall command result: OK\r\n");
 553              		.loc 1 269 0
 554 000a 2548     		ldr	r0, .L40
 555              	.LVL57:
 556 000c FFF7FEFF 		bl	UART_PutString
 557              	.LVL58:
 558 0010 02E0     		b	.L38
 559              	.LVL59:
 560              	.L37:
 270:i2c_helper.c  ****     }
 271:i2c_helper.c  ****     else
 272:i2c_helper.c  ****     {
 273:i2c_helper.c  ****         UART_PutString("Overall command result: ***ERROR****\r\n");
 561              		.loc 1 273 0
 562 0012 2448     		ldr	r0, .L40+4
 563              	.LVL60:
 564 0014 FFF7FEFF 		bl	UART_PutString
 565              	.LVL61:
 566              	.L38:
 274:i2c_helper.c  ****     }
 275:i2c_helper.c  ****     
 276:i2c_helper.c  ****     sprintf(outstr, "Timeout counter: 0x%04X\r\n", xfer_status->counter_value);
 567              		.loc 1 276 0
 568 0018 2288     		ldrh	r2, [r4]
 569 001a 2349     		ldr	r1, .L40+8
 570 001c 6846     		mov	r0, sp
 571 001e FFF7FEFF 		bl	sprintf
 572              	.LVL62:
 277:i2c_helper.c  ****     UART_PutString(outstr);
 573              		.loc 1 277 0
 574 0022 6846     		mov	r0, sp
 575 0024 FFF7FEFF 		bl	UART_PutString
ARM GAS  C:\Users\dhous\AppData\Local\Temp\ccKTMeyp.s 			page 16


 576              	.LVL63:
 278:i2c_helper.c  ****     
 279:i2c_helper.c  ****     sprintf(outstr, "I2C write cmd result: 0x%04X\r\n", xfer_status->write_cmd_result);
 577              		.loc 1 279 0
 578 0028 E288     		ldrh	r2, [r4, #6]
 579 002a 2049     		ldr	r1, .L40+12
 580 002c 6846     		mov	r0, sp
 581 002e FFF7FEFF 		bl	sprintf
 582              	.LVL64:
 280:i2c_helper.c  ****     UART_PutString(outstr);
 583              		.loc 1 280 0
 584 0032 6846     		mov	r0, sp
 585 0034 FFF7FEFF 		bl	UART_PutString
 586              	.LVL65:
 281:i2c_helper.c  **** 
 282:i2c_helper.c  ****     sprintf(outstr, "I2C write xfer result: 0x%04X\r\n", xfer_status->i2c_write_xfer_result);
 587              		.loc 1 282 0
 588 0038 6288     		ldrh	r2, [r4, #2]
 589 003a 1D49     		ldr	r1, .L40+16
 590 003c 6846     		mov	r0, sp
 591 003e FFF7FEFF 		bl	sprintf
 592              	.LVL66:
 283:i2c_helper.c  ****     UART_PutString(outstr);
 593              		.loc 1 283 0
 594 0042 6846     		mov	r0, sp
 595 0044 FFF7FEFF 		bl	UART_PutString
 596              	.LVL67:
 284:i2c_helper.c  ****     
 285:i2c_helper.c  ****     sprintf(outstr, "Byte count 0x%02X to write, 0x%02X written\r\n", xfer_status->bytes_to_write, 
 597              		.loc 1 285 0
 598 0048 E37A     		ldrb	r3, [r4, #11]	@ zero_extendqisi2
 599 004a A27A     		ldrb	r2, [r4, #10]	@ zero_extendqisi2
 600 004c 1949     		ldr	r1, .L40+20
 601 004e 6846     		mov	r0, sp
 602 0050 FFF7FEFF 		bl	sprintf
 603              	.LVL68:
 286:i2c_helper.c  ****     UART_PutString(outstr);
 604              		.loc 1 286 0
 605 0054 6846     		mov	r0, sp
 606 0056 FFF7FEFF 		bl	UART_PutString
 607              	.LVL69:
 287:i2c_helper.c  ****      
 288:i2c_helper.c  ****     sprintf(outstr, "I2C read cmd result: 0x%04X\r\n", xfer_status->read_cmd_result);
 608              		.loc 1 288 0
 609 005a 2289     		ldrh	r2, [r4, #8]
 610 005c 1649     		ldr	r1, .L40+24
 611 005e 6846     		mov	r0, sp
 612 0060 FFF7FEFF 		bl	sprintf
 613              	.LVL70:
 289:i2c_helper.c  ****     UART_PutString(outstr);
 614              		.loc 1 289 0
 615 0064 6846     		mov	r0, sp
 616 0066 FFF7FEFF 		bl	UART_PutString
 617              	.LVL71:
 290:i2c_helper.c  ****     
 291:i2c_helper.c  ****     sprintf(outstr, "I2C read xfer result: 0x%04X\r\n", xfer_status->i2c_read_xfer_result);
 618              		.loc 1 291 0
ARM GAS  C:\Users\dhous\AppData\Local\Temp\ccKTMeyp.s 			page 17


 619 006a A288     		ldrh	r2, [r4, #4]
 620 006c 1349     		ldr	r1, .L40+28
 621 006e 6846     		mov	r0, sp
 622 0070 FFF7FEFF 		bl	sprintf
 623              	.LVL72:
 292:i2c_helper.c  ****     UART_PutString(outstr);
 624              		.loc 1 292 0
 625 0074 6846     		mov	r0, sp
 626 0076 FFF7FEFF 		bl	UART_PutString
 627              	.LVL73:
 293:i2c_helper.c  ****     
 294:i2c_helper.c  ****     sprintf(outstr, "Byte count 0x%02X to read, 0x%02X read\r\n", xfer_status->bytes_to_read, xfer_
 628              		.loc 1 294 0
 629 007a 637B     		ldrb	r3, [r4, #13]	@ zero_extendqisi2
 630 007c 227B     		ldrb	r2, [r4, #12]	@ zero_extendqisi2
 631 007e 1049     		ldr	r1, .L40+32
 632 0080 6846     		mov	r0, sp
 633 0082 FFF7FEFF 		bl	sprintf
 634              	.LVL74:
 295:i2c_helper.c  ****     UART_PutString(outstr);
 635              		.loc 1 295 0
 636 0086 6846     		mov	r0, sp
 637 0088 FFF7FEFF 		bl	UART_PutString
 638              	.LVL75:
 296:i2c_helper.c  **** 
 297:i2c_helper.c  ****     sprintf(outstr, "Timeout flag: 0x%02X\r\n", xfer_status->timeout_error);
 639              		.loc 1 297 0
 640 008c A27B     		ldrb	r2, [r4, #14]	@ zero_extendqisi2
 641 008e 0D49     		ldr	r1, .L40+36
 642 0090 6846     		mov	r0, sp
 643 0092 FFF7FEFF 		bl	sprintf
 644              	.LVL76:
 298:i2c_helper.c  ****     UART_PutString(outstr);
 645              		.loc 1 298 0
 646 0096 6846     		mov	r0, sp
 647 0098 FFF7FEFF 		bl	UART_PutString
 648              	.LVL77:
 299:i2c_helper.c  **** 
 300:i2c_helper.c  ****     
 301:i2c_helper.c  **** }
 649              		.loc 1 301 0
 650 009c 10B0     		add	sp, sp, #64
 651              		.cfi_def_cfa_offset 8
 652              		@ sp needed
 653 009e 10BD     		pop	{r4, pc}
 654              	.LVL78:
 655              	.L41:
 656              		.align	2
 657              	.L40:
 658 00a0 00000000 		.word	.LC0
 659 00a4 20000000 		.word	.LC1
 660 00a8 48000000 		.word	.LC2
 661 00ac 64000000 		.word	.LC3
 662 00b0 84000000 		.word	.LC4
 663 00b4 A4000000 		.word	.LC5
 664 00b8 D4000000 		.word	.LC6
 665 00bc F4000000 		.word	.LC7
ARM GAS  C:\Users\dhous\AppData\Local\Temp\ccKTMeyp.s 			page 18


 666 00c0 14010000 		.word	.LC8
 667 00c4 40010000 		.word	.LC9
 668              		.cfi_endproc
 669              	.LFE69:
 670              		.size	I2C_print_transfer_status, .-I2C_print_transfer_status
 671              		.comm	I2C_status,18,4
 672              		.section	.rodata.str1.4,"aMS",%progbits,1
 673              		.align	2
 674              	.LC0:
 675 0000 4F766572 		.ascii	"Overall command result: OK\015\012\000"
 675      616C6C20 
 675      636F6D6D 
 675      616E6420 
 675      72657375 
 676 001d 000000   		.space	3
 677              	.LC1:
 678 0020 4F766572 		.ascii	"Overall command result: ***ERROR****\015\012\000"
 678      616C6C20 
 678      636F6D6D 
 678      616E6420 
 678      72657375 
 679 0047 00       		.space	1
 680              	.LC2:
 681 0048 54696D65 		.ascii	"Timeout counter: 0x%04X\015\012\000"
 681      6F757420 
 681      636F756E 
 681      7465723A 
 681      20307825 
 682 0062 0000     		.space	2
 683              	.LC3:
 684 0064 49324320 		.ascii	"I2C write cmd result: 0x%04X\015\012\000"
 684      77726974 
 684      6520636D 
 684      64207265 
 684      73756C74 
 685 0083 00       		.space	1
 686              	.LC4:
 687 0084 49324320 		.ascii	"I2C write xfer result: 0x%04X\015\012\000"
 687      77726974 
 687      65207866 
 687      65722072 
 687      6573756C 
 688              	.LC5:
 689 00a4 42797465 		.ascii	"Byte count 0x%02X to write, 0x%02X written\015\012\000"
 689      20636F75 
 689      6E742030 
 689      78253032 
 689      5820746F 
 690 00d1 000000   		.space	3
 691              	.LC6:
 692 00d4 49324320 		.ascii	"I2C read cmd result: 0x%04X\015\012\000"
 692      72656164 
 692      20636D64 
 692      20726573 
 692      756C743A 
 693 00f2 0000     		.space	2
 694              	.LC7:
ARM GAS  C:\Users\dhous\AppData\Local\Temp\ccKTMeyp.s 			page 19


 695 00f4 49324320 		.ascii	"I2C read xfer result: 0x%04X\015\012\000"
 695      72656164 
 695      20786665 
 695      72207265 
 695      73756C74 
 696 0113 00       		.space	1
 697              	.LC8:
 698 0114 42797465 		.ascii	"Byte count 0x%02X to read, 0x%02X read\015\012\000"
 698      20636F75 
 698      6E742030 
 698      78253032 
 698      5820746F 
 699 013d 000000   		.space	3
 700              	.LC9:
 701 0140 54696D65 		.ascii	"Timeout flag: 0x%02X\015\012\000"
 701      6F757420 
 701      666C6167 
 701      3A203078 
 701      25303258 
 702              		.text
 703              	.Letext0:
 704              		.file 2 "c:\\program files\\cypress\\psoc creator\\4.1\\psoc creator\\import\\gnu\\arm\\5.4.1\\arm
 705              		.file 3 "c:\\program files\\cypress\\psoc creator\\4.1\\psoc creator\\import\\gnu\\arm\\5.4.1\\arm
 706              		.file 4 "i2c_helper.h"
 707              		.file 5 "Generated_Source\\PSoC5/core_cm3.h"
 708              		.file 6 "Generated_Source\\PSoC5/I2C.h"
 709              		.file 7 "Generated_Source\\PSoC5/UART.h"
 710              		.file 8 "c:\\program files\\cypress\\psoc creator\\4.1\\psoc creator\\import\\gnu\\arm\\5.4.1\\arm