ARM GAS  C:\Users\dhous\AppData\Local\Temp\ccoPXq2x.s 			page 1


   1              		.syntax unified
   2              		.cpu cortex-m3
   3              		.fpu softvfp
   4              		.eabi_attribute 20, 1
   5              		.eabi_attribute 21, 1
   6              		.eabi_attribute 23, 3
   7              		.eabi_attribute 24, 1
   8              		.eabi_attribute 25, 1
   9              		.eabi_attribute 26, 1
  10              		.eabi_attribute 30, 1
  11              		.eabi_attribute 34, 1
  12              		.eabi_attribute 18, 4
  13              		.thumb
  14              		.syntax unified
  15              		.file	"wiichuck.c"
  16              		.text
  17              	.Ltext0:
  18              		.cfi_sections	.debug_frame
  19              		.section	.text.wiichuck_get_motion_status,"ax",%progbits
  20              		.align	2
  21              		.global	wiichuck_get_motion_status
  22              		.thumb
  23              		.thumb_func
  24              		.type	wiichuck_get_motion_status, %function
  25              	wiichuck_get_motion_status:
  26              	.LFB65:
  27              		.file 1 "wiichuck.c"
   1:wiichuck.c    **** #include "project.h"
   2:wiichuck.c    **** #include "i2c_helper.h"
   3:wiichuck.c    **** #include "wiichuck.h"
   4:wiichuck.c    **** 
   5:wiichuck.c    **** 
   6:wiichuck.c    **** void wiichuck_begin()
   7:wiichuck.c    **** {
   8:wiichuck.c    ****     // instead of the common 0x40 -> 0x00 initialization, we
   9:wiichuck.c    ****     // use 0xF0 -> 0x55 followed by 0xFB -> 0x00.
  10:wiichuck.c    ****     // this lets us use 3rd party nunchucks (like cheap $4 ebay ones)
  11:wiichuck.c    ****     // while still letting us use official oness.
  12:wiichuck.c    ****     // only side effect is that we no longer need to decode bytes in _nunchuk_decode_byte
  13:wiichuck.c    ****     // see http://forum.arduino.cc/index.php?topic=45924#msg333160
  14:wiichuck.c    ****     
  15:wiichuck.c    ****     uint8_t return_status = 0;
  16:wiichuck.c    ****     wiichuck_status_request_array[0] = 0x00;
  17:wiichuck.c    ****     
  18:wiichuck.c    ****     initialization_buffer[0][0] = 0xF0; //0x40
  19:wiichuck.c    ****     initialization_buffer[0][1] = 0x55; //0x00
  20:wiichuck.c    ****     initialization_buffer[1][0] = 0xFB;
  21:wiichuck.c    ****     initialization_buffer[1][1] = 0x00;
  22:wiichuck.c    ****     
  23:wiichuck.c    ****     // following the Arduino example these are written as distinct transactions
  24:wiichuck.c    ****     uint8_t j = 0;
  25:wiichuck.c    ****     
  26:wiichuck.c    ****     for (j = 0; j < 1; j++)
  27:wiichuck.c    ****     {
  28:wiichuck.c    ****         I2C_write(WIICHUCK_I2C_ADDRESS, initialization_buffer[j], sizeof(initialization_buffer[j]),
  29:wiichuck.c    ****         CyDelay(1); // this is copied from the Arduino site
  30:wiichuck.c    ****     }
ARM GAS  C:\Users\dhous\AppData\Local\Temp\ccoPXq2x.s 			page 2


  31:wiichuck.c    ****     
  32:wiichuck.c    ****     wiichuck_get_motion_status();
  33:wiichuck.c    **** 
  34:wiichuck.c    ****     //update();            
  35:wiichuck.c    ****     for (i = 0; i<3;i++) {
  36:wiichuck.c    ****         angles[i] = 0;
  37:wiichuck.c    ****     }
  38:wiichuck.c    ****     zeroJoyX = DEFAULT_ZERO_JOY_X;
  39:wiichuck.c    ****     zeroJoyY = DEFAULT_ZERO_JOY_Y;
  40:wiichuck.c    **** }
  41:wiichuck.c    **** 
  42:wiichuck.c    **** void wiichuck_get_motion_status()
  43:wiichuck.c    **** {
  28              		.loc 1 43 0
  29              		.cfi_startproc
  30              		@ args = 0, pretend = 0, frame = 0
  31              		@ frame_needed = 0, uses_anonymous_args = 0
  32 0000 10B5     		push	{r4, lr}
  33              		.cfi_def_cfa_offset 8
  34              		.cfi_offset 4, -8
  35              		.cfi_offset 14, -4
  44:wiichuck.c    ****             
  45:wiichuck.c    ****     I2C_read(WIICHUCK_I2C_ADDRESS, wiichuck_status_result_array,
  36              		.loc 1 45 0
  37 0002 074C     		ldr	r4, .L3
  38 0004 2346     		mov	r3, r4
  39 0006 0622     		movs	r2, #6
  40 0008 0649     		ldr	r1, .L3+4
  41 000a 5220     		movs	r0, #82
  42 000c FFF7FEFF 		bl	I2C_read
  43              	.LVL0:
  46:wiichuck.c    ****         sizeof(wiichuck_status_result_array),
  47:wiichuck.c    ****         &I2C_status);
  48:wiichuck.c    ****     
  49:wiichuck.c    ****     I2C_write(WIICHUCK_I2C_ADDRESS, wiichuck_status_request_array,
  44              		.loc 1 49 0
  45 0010 2346     		mov	r3, r4
  46 0012 0122     		movs	r2, #1
  47 0014 0449     		ldr	r1, .L3+8
  48 0016 5220     		movs	r0, #82
  49 0018 FFF7FEFF 		bl	I2C_write
  50              	.LVL1:
  51 001c 10BD     		pop	{r4, pc}
  52              	.L4:
  53 001e 00BF     		.align	2
  54              	.L3:
  55 0020 00000000 		.word	I2C_status
  56 0024 00000000 		.word	wiichuck_status_result_array
  57 0028 00000000 		.word	wiichuck_status_request_array
  58              		.cfi_endproc
  59              	.LFE65:
  60              		.size	wiichuck_get_motion_status, .-wiichuck_get_motion_status
  61              		.section	.text.wiichuck_begin,"ax",%progbits
  62              		.align	2
  63              		.global	wiichuck_begin
  64              		.thumb
  65              		.thumb_func
ARM GAS  C:\Users\dhous\AppData\Local\Temp\ccoPXq2x.s 			page 3


  66              		.type	wiichuck_begin, %function
  67              	wiichuck_begin:
  68              	.LFB64:
   7:wiichuck.c    ****     // instead of the common 0x40 -> 0x00 initialization, we
  69              		.loc 1 7 0
  70              		.cfi_startproc
  71              		@ args = 0, pretend = 0, frame = 0
  72              		@ frame_needed = 0, uses_anonymous_args = 0
  73 0000 10B5     		push	{r4, lr}
  74              		.cfi_def_cfa_offset 8
  75              		.cfi_offset 4, -8
  76              		.cfi_offset 14, -4
  77              	.LVL2:
  16:wiichuck.c    ****     
  78              		.loc 1 16 0
  79 0002 0024     		movs	r4, #0
  80 0004 184B     		ldr	r3, .L11
  81 0006 1C70     		strb	r4, [r3]
  18:wiichuck.c    ****     initialization_buffer[0][1] = 0x55; //0x00
  82              		.loc 1 18 0
  83 0008 184B     		ldr	r3, .L11+4
  84 000a F022     		movs	r2, #240
  85 000c 1A70     		strb	r2, [r3]
  19:wiichuck.c    ****     initialization_buffer[1][0] = 0xFB;
  86              		.loc 1 19 0
  87 000e 5522     		movs	r2, #85
  88 0010 5A70     		strb	r2, [r3, #1]
  20:wiichuck.c    ****     initialization_buffer[1][1] = 0x00;
  89              		.loc 1 20 0
  90 0012 FB22     		movs	r2, #251
  91 0014 9A70     		strb	r2, [r3, #2]
  21:wiichuck.c    ****     
  92              		.loc 1 21 0
  93 0016 DC70     		strb	r4, [r3, #3]
  94              	.LVL3:
  26:wiichuck.c    ****     {
  95              		.loc 1 26 0
  96 0018 0CE0     		b	.L6
  97              	.LVL4:
  98              	.L7:
  28:wiichuck.c    ****         CyDelay(1); // this is copied from the Arduino site
  99              		.loc 1 28 0 discriminator 3
 100 001a 154B     		ldr	r3, .L11+8
 101 001c 0222     		movs	r2, #2
 102 001e 1349     		ldr	r1, .L11+4
 103 0020 01EB4401 		add	r1, r1, r4, lsl #1
 104 0024 5220     		movs	r0, #82
 105 0026 FFF7FEFF 		bl	I2C_write
 106              	.LVL5:
  29:wiichuck.c    ****     }
 107              		.loc 1 29 0 discriminator 3
 108 002a 0120     		movs	r0, #1
 109 002c FFF7FEFF 		bl	CyDelay
 110              	.LVL6:
  26:wiichuck.c    ****     {
 111              		.loc 1 26 0 discriminator 3
 112 0030 0134     		adds	r4, r4, #1
ARM GAS  C:\Users\dhous\AppData\Local\Temp\ccoPXq2x.s 			page 4


 113              	.LVL7:
 114 0032 E4B2     		uxtb	r4, r4
 115              	.LVL8:
 116              	.L6:
  26:wiichuck.c    ****     {
 117              		.loc 1 26 0 is_stmt 0 discriminator 1
 118 0034 002C     		cmp	r4, #0
 119 0036 F0D0     		beq	.L7
  32:wiichuck.c    **** 
 120              		.loc 1 32 0 is_stmt 1
 121 0038 FFF7FEFF 		bl	wiichuck_get_motion_status
 122              	.LVL9:
  35:wiichuck.c    ****         angles[i] = 0;
 123              		.loc 1 35 0
 124 003c 0022     		movs	r2, #0
 125 003e 0D4B     		ldr	r3, .L11+12
 126 0040 1A60     		str	r2, [r3]
 127 0042 06E0     		b	.L8
 128              	.L9:
  36:wiichuck.c    ****     }
 129              		.loc 1 36 0 discriminator 3
 130 0044 0021     		movs	r1, #0
 131 0046 0C4A     		ldr	r2, .L11+16
 132 0048 42F82310 		str	r1, [r2, r3, lsl #2]
  35:wiichuck.c    ****         angles[i] = 0;
 133              		.loc 1 35 0 discriminator 3
 134 004c 0133     		adds	r3, r3, #1
 135 004e 094A     		ldr	r2, .L11+12
 136 0050 1360     		str	r3, [r2]
 137              	.L8:
  35:wiichuck.c    ****         angles[i] = 0;
 138              		.loc 1 35 0 is_stmt 0 discriminator 1
 139 0052 084B     		ldr	r3, .L11+12
 140 0054 1B68     		ldr	r3, [r3]
 141 0056 022B     		cmp	r3, #2
 142 0058 F4DD     		ble	.L9
  38:wiichuck.c    ****     zeroJoyY = DEFAULT_ZERO_JOY_Y;
 143              		.loc 1 38 0 is_stmt 1
 144 005a 7C22     		movs	r2, #124
 145 005c 074B     		ldr	r3, .L11+20
 146 005e 1A70     		strb	r2, [r3]
  39:wiichuck.c    **** }
 147              		.loc 1 39 0
 148 0060 8422     		movs	r2, #132
 149 0062 074B     		ldr	r3, .L11+24
 150 0064 1A70     		strb	r2, [r3]
 151 0066 10BD     		pop	{r4, pc}
 152              	.LVL10:
 153              	.L12:
 154              		.align	2
 155              	.L11:
 156 0068 00000000 		.word	wiichuck_status_request_array
 157 006c 00000000 		.word	initialization_buffer
 158 0070 00000000 		.word	I2C_status
 159 0074 00000000 		.word	i
 160 0078 00000000 		.word	angles
 161 007c 00000000 		.word	zeroJoyX
ARM GAS  C:\Users\dhous\AppData\Local\Temp\ccoPXq2x.s 			page 5


 162 0080 00000000 		.word	zeroJoyY
 163              		.cfi_endproc
 164              	.LFE64:
 165              		.size	wiichuck_begin, .-wiichuck_begin
 166              		.section	.text.wiichuck_print_i2c_status,"ax",%progbits
 167              		.align	2
 168              		.global	wiichuck_print_i2c_status
 169              		.thumb
 170              		.thumb_func
 171              		.type	wiichuck_print_i2c_status, %function
 172              	wiichuck_print_i2c_status:
 173              	.LFB66:
  50:wiichuck.c    ****         sizeof(wiichuck_status_request_array),
  51:wiichuck.c    ****         &I2C_status);
  52:wiichuck.c    ****     
  53:wiichuck.c    **** }
  54:wiichuck.c    **** 
  55:wiichuck.c    **** void wiichuck_print_i2c_status()
  56:wiichuck.c    **** {
 174              		.loc 1 56 0
 175              		.cfi_startproc
 176              		@ args = 0, pretend = 0, frame = 0
 177              		@ frame_needed = 0, uses_anonymous_args = 0
 178 0000 08B5     		push	{r3, lr}
 179              		.cfi_def_cfa_offset 8
 180              		.cfi_offset 3, -8
 181              		.cfi_offset 14, -4
  57:wiichuck.c    ****     I2C_print_transfer_status(&I2C_status);
 182              		.loc 1 57 0
 183 0002 0248     		ldr	r0, .L15
 184 0004 FFF7FEFF 		bl	I2C_print_transfer_status
 185              	.LVL11:
 186 0008 08BD     		pop	{r3, pc}
 187              	.L16:
 188 000a 00BF     		.align	2
 189              	.L15:
 190 000c 00000000 		.word	I2C_status
 191              		.cfi_endproc
 192              	.LFE66:
 193              		.size	wiichuck_print_i2c_status, .-wiichuck_print_i2c_status
 194              		.section	.text.wiichuck_get_raw_motion_status,"ax",%progbits
 195              		.align	2
 196              		.global	wiichuck_get_raw_motion_status
 197              		.thumb
 198              		.thumb_func
 199              		.type	wiichuck_get_raw_motion_status, %function
 200              	wiichuck_get_raw_motion_status:
 201              	.LFB67:
  58:wiichuck.c    **** }
  59:wiichuck.c    **** 
  60:wiichuck.c    **** void wiichuck_get_raw_motion_status()
  61:wiichuck.c    **** {
 202              		.loc 1 61 0
 203              		.cfi_startproc
 204              		@ args = 0, pretend = 0, frame = 0
 205              		@ frame_needed = 0, uses_anonymous_args = 0
 206 0000 38B5     		push	{r3, r4, r5, lr}
ARM GAS  C:\Users\dhous\AppData\Local\Temp\ccoPXq2x.s 			page 6


 207              		.cfi_def_cfa_offset 16
 208              		.cfi_offset 3, -16
 209              		.cfi_offset 4, -12
 210              		.cfi_offset 5, -8
 211              		.cfi_offset 14, -4
  62:wiichuck.c    ****     wiichuck_get_motion_status();
 212              		.loc 1 62 0
 213 0002 FFF7FEFF 		bl	wiichuck_get_motion_status
 214              	.LVL12:
  63:wiichuck.c    ****     
  64:wiichuck.c    ****     wiichuck_state.JX = wiichuck_status_result_array[0];
 215              		.loc 1 64 0
 216 0006 0F49     		ldr	r1, .L19
 217 0008 0A78     		ldrb	r2, [r1]	@ zero_extendqisi2
 218 000a 0F4B     		ldr	r3, .L19+4
 219 000c 1A70     		strb	r2, [r3]
  65:wiichuck.c    ****     wiichuck_state.JY = wiichuck_status_result_array[1];
 220              		.loc 1 65 0
 221 000e 4A78     		ldrb	r2, [r1, #1]	@ zero_extendqisi2
 222 0010 5A70     		strb	r2, [r3, #1]
  66:wiichuck.c    **** 
  67:wiichuck.c    ****     
  68:wiichuck.c    ****     wiichuck_state.AX = ((uint16_t)(0b00001100 & wiichuck_status_result_array[5])) >> 2;
 223              		.loc 1 68 0
 224 0012 4A79     		ldrb	r2, [r1, #5]	@ zero_extendqisi2
 225 0014 C2F38104 		ubfx	r4, r2, #2, #2
  69:wiichuck.c    ****     wiichuck_state.AY = ((uint16_t)(0b00110000 & wiichuck_status_result_array[5])) >> 4;
 226              		.loc 1 69 0
 227 0018 C2F30110 		ubfx	r0, r2, #4, #2
  70:wiichuck.c    ****     wiichuck_state.AZ = ((uint16_t)(0b11000000 & wiichuck_status_result_array[5])) >> 6;
  71:wiichuck.c    ****     
  72:wiichuck.c    ****     wiichuck_state.AX |= (((uint16_t)wiichuck_status_result_array[2]) << 2);
 228              		.loc 1 72 0
 229 001c 8D78     		ldrb	r5, [r1, #2]	@ zero_extendqisi2
 230 001e 44EA8504 		orr	r4, r4, r5, lsl #2
 231 0022 5C80     		strh	r4, [r3, #2]	@ movhi
  73:wiichuck.c    ****     wiichuck_state.AY |= (((uint16_t)wiichuck_status_result_array[3]) << 2);
 232              		.loc 1 73 0
 233 0024 CC78     		ldrb	r4, [r1, #3]	@ zero_extendqisi2
 234 0026 40EA8400 		orr	r0, r0, r4, lsl #2
 235 002a 9880     		strh	r0, [r3, #4]	@ movhi
  74:wiichuck.c    ****     wiichuck_state.AZ |= (((uint16_t)wiichuck_status_result_array[4]) << 2);
 236              		.loc 1 74 0
 237 002c 0979     		ldrb	r1, [r1, #4]	@ zero_extendqisi2
 238 002e 8900     		lsls	r1, r1, #2
 239 0030 41EA9211 		orr	r1, r1, r2, lsr #6
 240 0034 D980     		strh	r1, [r3, #6]	@ movhi
  75:wiichuck.c    ****     
  76:wiichuck.c    ****     wiichuck_state.C = (0b00000010 & wiichuck_status_result_array[5]) >> 1;
 241              		.loc 1 76 0
 242 0036 C2F34001 		ubfx	r1, r2, #1, #1
 243 003a 1972     		strb	r1, [r3, #8]
  77:wiichuck.c    ****     wiichuck_state.Z = (0b00000001 & wiichuck_status_result_array[5]);
 244              		.loc 1 77 0
 245 003c 02F00102 		and	r2, r2, #1
 246 0040 5A72     		strb	r2, [r3, #9]
 247 0042 38BD     		pop	{r3, r4, r5, pc}
ARM GAS  C:\Users\dhous\AppData\Local\Temp\ccoPXq2x.s 			page 7


 248              	.L20:
 249              		.align	2
 250              	.L19:
 251 0044 00000000 		.word	wiichuck_status_result_array
 252 0048 00000000 		.word	wiichuck_state
 253              		.cfi_endproc
 254              	.LFE67:
 255              		.size	wiichuck_get_raw_motion_status, .-wiichuck_get_raw_motion_status
 256              		.section	.text.wiichuck_print_raw_motion_status,"ax",%progbits
 257              		.align	2
 258              		.global	wiichuck_print_raw_motion_status
 259              		.thumb
 260              		.thumb_func
 261              		.type	wiichuck_print_raw_motion_status, %function
 262              	wiichuck_print_raw_motion_status:
 263              	.LFB68:
  78:wiichuck.c    **** }
  79:wiichuck.c    **** 
  80:wiichuck.c    **** void wiichuck_print_raw_motion_status()
  81:wiichuck.c    **** {
 264              		.loc 1 81 0
 265              		.cfi_startproc
 266              		@ args = 0, pretend = 0, frame = 80
 267              		@ frame_needed = 0, uses_anonymous_args = 0
 268 0000 70B5     		push	{r4, r5, r6, lr}
 269              		.cfi_def_cfa_offset 16
 270              		.cfi_offset 4, -16
 271              		.cfi_offset 5, -12
 272              		.cfi_offset 6, -8
 273              		.cfi_offset 14, -4
 274 0002 9AB0     		sub	sp, sp, #104
 275              		.cfi_def_cfa_offset 120
  82:wiichuck.c    ****     char pbuf[80];
  83:wiichuck.c    ****     
  84:wiichuck.c    ****     sprintf(pbuf, "Wiichuck (jx, jy, ax, ay, az, c, z): %d %d %d %d %d %d %d\r\n", wiichuck_state.J
 276              		.loc 1 84 0
 277 0004 0A49     		ldr	r1, .L23
 278 0006 0A78     		ldrb	r2, [r1]	@ zero_extendqisi2
 279 0008 4B78     		ldrb	r3, [r1, #1]	@ zero_extendqisi2
 280 000a 4888     		ldrh	r0, [r1, #2]
 281 000c 8C88     		ldrh	r4, [r1, #4]
 282 000e CD88     		ldrh	r5, [r1, #6]
 283 0010 0E7A     		ldrb	r6, [r1, #8]	@ zero_extendqisi2
 284 0012 497A     		ldrb	r1, [r1, #9]	@ zero_extendqisi2
 285 0014 0491     		str	r1, [sp, #16]
 286 0016 0396     		str	r6, [sp, #12]
 287 0018 0295     		str	r5, [sp, #8]
 288 001a 0194     		str	r4, [sp, #4]
 289 001c 0090     		str	r0, [sp]
 290 001e 0549     		ldr	r1, .L23+4
 291 0020 06A8     		add	r0, sp, #24
 292 0022 FFF7FEFF 		bl	sprintf
 293              	.LVL13:
  85:wiichuck.c    ****     UART_PutString(pbuf);
 294              		.loc 1 85 0
 295 0026 06A8     		add	r0, sp, #24
 296 0028 FFF7FEFF 		bl	UART_PutString
ARM GAS  C:\Users\dhous\AppData\Local\Temp\ccoPXq2x.s 			page 8


 297              	.LVL14:
  86:wiichuck.c    **** 
  87:wiichuck.c    **** }
 298              		.loc 1 87 0
 299 002c 1AB0     		add	sp, sp, #104
 300              		.cfi_def_cfa_offset 16
 301              		@ sp needed
 302 002e 70BD     		pop	{r4, r5, r6, pc}
 303              	.L24:
 304              		.align	2
 305              	.L23:
 306 0030 00000000 		.word	wiichuck_state
 307 0034 00000000 		.word	.LC0
 308              		.cfi_endproc
 309              	.LFE68:
 310              		.size	wiichuck_print_raw_motion_status, .-wiichuck_print_raw_motion_status
 311              		.comm	initialization_buffer,4,4
 312              		.comm	buttonC,1,1
 313              		.comm	buttonZ,1,1
 314              		.comm	joyY,1,1
 315              		.comm	joyX,1,1
 316              		.comm	lastC,1,1
 317              		.comm	lastZ,1,1
 318              		.comm	wiichuck_state,10,4
 319              		.comm	angles,12,4
 320              		.comm	lastJoyY,4,4
 321              		.comm	lastJoyX,4,4
 322              		.comm	zeroJoyY,1,1
 323              		.comm	zeroJoyX,1,1
 324              		.comm	total,4,4
 325              		.comm	i,4,4
 326              		.comm	averageCounter,1,1
 327              		.comm	wiichuck_status_result_array,6,4
 328              		.comm	wiichuck_status_request_array,1,4
 329              		.comm	cnt,1,1
 330              		.comm	I2C_status,18,4
 331              		.section	.rodata.str1.4,"aMS",%progbits,1
 332              		.align	2
 333              	.LC0:
 334 0000 57696963 		.ascii	"Wiichuck (jx, jy, ax, ay, az, c, z): %d %d %d %d %d"
 334      6875636B 
 334      20286A78 
 334      2C206A79 
 334      2C206178 
 335 0033 20256420 		.ascii	" %d %d\015\012\000"
 335      25640D0A 
 335      00
 336              		.text
 337              	.Letext0:
 338              		.file 2 "c:\\program files\\cypress\\psoc creator\\4.1\\psoc creator\\import\\gnu\\arm\\5.4.1\\arm
 339              		.file 3 "c:\\program files\\cypress\\psoc creator\\4.1\\psoc creator\\import\\gnu\\arm\\5.4.1\\arm
 340              		.file 4 "i2c_helper.h"
 341              		.file 5 "wiichuck.h"
 342              		.file 6 "Generated_Source\\PSoC5/core_cm3.h"
 343              		.file 7 "Generated_Source\\PSoC5/CyLib.h"
 344              		.file 8 "c:\\program files\\cypress\\psoc creator\\4.1\\psoc creator\\import\\gnu\\arm\\5.4.1\\arm
 345              		.file 9 "Generated_Source\\PSoC5/UART.h"
ARM GAS  C:\Users\dhous\AppData\Local\Temp\ccoPXq2x.s 			page 9

